target datalayout = "e-m:e-p270:32:32-p271:32:32-p272:64:64-i64:64-i128:128-f80:128-n8:16:32:64-S128"
target triple = "x86_64-pc-linux-gnu"

%struct.RelationData = type { %struct.RelFileLocator, ptr, i32, i32, i8, i8, i8, i8, i8, i32, i32, i32, i32, ptr, ptr, i32, %struct.LockInfoData, ptr, ptr, ptr, ptr, ptr, i8, ptr, ptr, ptr, ptr, ptr, ptr, i32, ptr, i8, ptr, ptr, i32, i8, i32, ptr, i8, ptr, ptr, ptr, ptr, ptr, ptr, ptr, i32, ptr, ptr, ptr, ptr, ptr, ptr, ptr, ptr, ptr, ptr, ptr, ptr, ptr, ptr, ptr, ptr, ptr, ptr, ptr, i32, i8, ptr }
%struct.RelFileLocator = type { i32, i32, i32 }
%struct.LockInfoData = type { %struct.LockRelId }
%struct.LockRelId = type { i32, i32 }
%struct.FormData_pg_class = type { i32, %struct.nameData, i32, i32, i32, i32, i32, i32, i32, i32, float, i32, i32, i8, i8, i8, i8, i16, i16, i8, i8, i8, i8, i8, i8, i8, i8, i32, i32, i32 }
%struct.nameData = type { [64 x i8] }
%struct.HeapTupleData = type { i32, %struct.ItemPointerData, i32, ptr }
%struct.ItemPointerData = type { %struct.BlockIdData, i16 }
%struct.BlockIdData = type { i16, i16 }
%struct.HeapTupleHeaderData = type { %union.anon, %struct.ItemPointerData, i16, i16, i8, [0 x i8] }
%union.anon = type { %struct.HeapTupleFields }
%struct.HeapTupleFields = type { i32, i32, %union.anon.0 }
%union.anon.0 = type { i32 }
%struct.ScanKeyData = type { i32, i16, i16, i32, i32, %struct.FmgrInfo, i64 }
%struct.FmgrInfo = type { ptr, i32, i16, i8, i8, i8, ptr, ptr, ptr }
%struct.TableScanDescData = type { ptr, ptr, i32, ptr, %union.anon.1, i32, ptr }
%union.anon.1 = type { %struct.TBMIterator }
%struct.TBMIterator = type { i8, %union.anon.2 }
%union.anon.2 = type { ptr }
%struct.TableAmRoutine = type { i32, ptr, ptr, ptr, ptr, ptr, ptr, ptr, ptr, ptr, ptr, ptr, ptr, ptr, ptr, ptr, ptr, ptr, ptr, ptr, ptr, ptr, ptr, ptr, ptr, ptr, ptr, ptr, ptr, ptr, ptr, ptr, ptr, ptr, ptr, ptr, ptr, ptr, ptr, ptr, ptr, ptr, ptr, ptr, ptr, ptr }

; Function Attrs: inlinehint nounwind uwtable
define internal void @table_endscan(ptr noundef %0) #2 {
  %2 = alloca ptr, align 8
  store ptr %0, ptr %2, align 8
  %3 = load ptr, ptr %2, align 8
  %4 = getelementptr inbounds nuw %struct.TableScanDescData, ptr %3, i32 0, i32 0
  %5 = load ptr, ptr %4, align 8
  %6 = getelementptr inbounds nuw %struct.RelationData, ptr %5, i32 0, i32 47
  %7 = load ptr, ptr %6, align 8
  %8 = getelementptr inbounds nuw %struct.TableAmRoutine, ptr %7, i32 0, i32 3
  %9 = load ptr, ptr %8, align 8
  %10 = load ptr, ptr %2, align 8
  call void %9(ptr noundef %10)
  ret void
}

; Function Attrs: nounwind uwtable
define internal zeroext i1 @is_publishable_class(i32 noundef %0, ptr noundef %1) #0 {
  %3 = alloca i32, align 4
  %4 = alloca ptr, align 8
  store i32 %0, ptr %3, align 4
  store ptr %1, ptr %4, align 8
  %5 = load ptr, ptr %4, align 8
  %6 = getelementptr inbounds nuw %struct.FormData_pg_class, ptr %5, i32 0, i32 16
  %7 = load i8, ptr %6, align 1
  %8 = sext i8 %7 to i32
  %9 = icmp eq i32 %8, 114
  br i1 %9, label %16, label %10

10:                                               ; preds = %2
  %11 = load ptr, ptr %4, align 8
  %12 = getelementptr inbounds nuw %struct.FormData_pg_class, ptr %11, i32 0, i32 16
  %13 = load i8, ptr %12, align 1
  %14 = sext i8 %13 to i32
  %15 = icmp eq i32 %14, 112
  br i1 %15, label %16, label %28

16:                                               ; preds = %10, %2
  %17 = load i32, ptr %3, align 4
  %18 = call zeroext i1 @IsCatalogRelationOid(i32 noundef %17)
  br i1 %18, label %28, label %19

19:                                               ; preds = %16
  %20 = load ptr, ptr %4, align 8
  %21 = getelementptr inbounds nuw %struct.FormData_pg_class, ptr %20, i32 0, i32 15
  %22 = load i8, ptr %21, align 2
  %23 = sext i8 %22 to i32
  %24 = icmp eq i32 %23, 112
  br i1 %24, label %25, label %28

25:                                               ; preds = %19
  %26 = load i32, ptr %3, align 4
  %27 = icmp uge i32 %26, 16384
  br label %28

28:                                               ; preds = %25, %19, %16, %10
  %29 = phi i1 [ false, %19 ], [ false, %16 ], [ false, %10 ], [ %27, %25 ]
  ret i1 %29
}

; Function Attrs: inlinehint nounwind uwtable
define internal ptr @GETSTRUCT(ptr noundef %0) #2 {
  %2 = alloca ptr, align 8
  store ptr %0, ptr %2, align 8
  %3 = load ptr, ptr %2, align 8
  %4 = getelementptr inbounds nuw %struct.HeapTupleData, ptr %3, i32 0, i32 3
  %5 = load ptr, ptr %4, align 8
  %6 = load ptr, ptr %2, align 8
  %7 = getelementptr inbounds nuw %struct.HeapTupleData, ptr %6, i32 0, i32 3
  %8 = load ptr, ptr %7, align 8
  %9 = getelementptr inbounds nuw %struct.HeapTupleHeaderData, ptr %8, i32 0, i32 4
  %10 = load i8, ptr %9, align 2
  %11 = zext i8 %10 to i32
  %12 = sext i32 %11 to i64
  %13 = getelementptr inbounds i8, ptr %5, i64 %12
  ret ptr %13
}

; Function Attrs: inlinehint nounwind uwtable
define internal i64 @CharGetDatum(i8 noundef signext %0) #2 {
  %2 = alloca i8, align 1
  store i8 %0, ptr %2, align 1
  %3 = load i8, ptr %2, align 1
  %4 = sext i8 %3 to i64
  ret i64 %4
}

; Function Attrs: nounwind uwtable
define dso_local ptr @GetAllTablesPublicationRelations(i1 noundef zeroext %0) #0 {
  %2 = alloca i8, align 1
  %3 = alloca ptr, align 8
  %4 = alloca [1 x %struct.ScanKeyData], align 16
  %5 = alloca ptr, align 8
  %6 = alloca ptr, align 8
  %7 = alloca ptr, align 8
  %8 = alloca ptr, align 8
  %9 = alloca i32, align 4
  %10 = alloca ptr, align 8
  %11 = alloca i32, align 4
  %12 = zext i1 %0 to i8
  store i8 %12, ptr %2, align 1
  call void @llvm.lifetime.start.p0(i64 8, ptr %3) #7
  call void @llvm.lifetime.start.p0(i64 72, ptr %4) #7
  call void @llvm.lifetime.start.p0(i64 8, ptr %5) #7
  call void @llvm.lifetime.start.p0(i64 8, ptr %6) #7
  call void @llvm.lifetime.start.p0(i64 8, ptr %7) #7
  store ptr null, ptr %7, align 8
  %13 = call ptr @table_open(i32 noundef 1259, i32 noundef 1)
  store ptr %13, ptr %3, align 8
  %14 = getelementptr inbounds [1 x %struct.ScanKeyData], ptr %4, i64 0, i64 0
  %15 = call i64 @CharGetDatum(i8 noundef signext 114)
  call void @ScanKeyInit(ptr noundef %14, i16 noundef signext 17, i16 noundef zeroext 3, i32 noundef 61, i64 noundef %15)
  %16 = load ptr, ptr %3, align 8
  %17 = getelementptr inbounds [1 x %struct.ScanKeyData], ptr %4, i64 0, i64 0
  %18 = call ptr @table_beginscan_catalog(ptr noundef %16, i32 noundef 1, ptr noundef %17)
  store ptr %18, ptr %5, align 8
  br label %19

19:                                               ; preds = %44, %1
  %20 = load ptr, ptr %5, align 8
  %21 = call ptr @heap_getnext(ptr noundef %20, i32 noundef 1)
  store ptr %21, ptr %6, align 8
  %22 = icmp ne ptr %21, null
  br i1 %22, label %23, label %45

23:                                               ; preds = %19
  call void @llvm.lifetime.start.p0(i64 8, ptr %8) #7
  %24 = load ptr, ptr %6, align 8
  %25 = call ptr @GETSTRUCT(ptr noundef %24)
  store ptr %25, ptr %8, align 8
  call void @llvm.lifetime.start.p0(i64 4, ptr %9) #7
  %26 = load ptr, ptr %8, align 8
  %27 = getelementptr inbounds nuw %struct.FormData_pg_class, ptr %26, i32 0, i32 0
  %28 = load i32, ptr %27, align 4
  store i32 %28, ptr %9, align 4
  %29 = load i32, ptr %9, align 4
  %30 = load ptr, ptr %8, align 8
  %31 = call zeroext i1 @is_publishable_class(i32 noundef %29, ptr noundef %30)
  br i1 %31, label %32, label %44

32:                                               ; preds = %23
  %33 = load ptr, ptr %8, align 8
  %34 = getelementptr inbounds nuw %struct.FormData_pg_class, ptr %33, i32 0, i32 26
  %35 = load i8, ptr %34, align 1, !range !4, !noundef !5
  %36 = trunc i8 %35 to i1
  br i1 %36, label %37, label %40

37:                                               ; preds = %32
  %38 = load i8, ptr %2, align 1, !range !4, !noundef !5
  %39 = trunc i8 %38 to i1
  br i1 %39, label %44, label %40

40:                                               ; preds = %37, %32
  %41 = load ptr, ptr %7, align 8
  %42 = load i32, ptr %9, align 4
  %43 = call ptr @lappend_oid(ptr noundef %41, i32 noundef %42)
  store ptr %43, ptr %7, align 8
  br label %44

44:                                               ; preds = %40, %37, %23
  call void @llvm.lifetime.end.p0(i64 4, ptr %9) #7
  call void @llvm.lifetime.end.p0(i64 8, ptr %8) #7
  br label %19, !llvm.loop !19

45:                                               ; preds = %19
  %46 = load ptr, ptr %5, align 8
  call void @table_endscan(ptr noundef %46)
  %47 = load i8, ptr %2, align 1, !range !4, !noundef !5
  %48 = trunc i8 %47 to i1
  br i1 %48, label %49, label %80

49:                                               ; preds = %45
  %50 = getelementptr inbounds [1 x %struct.ScanKeyData], ptr %4, i64 0, i64 0
  %51 = call i64 @CharGetDatum(i8 noundef signext 112)
  call void @ScanKeyInit(ptr noundef %50, i16 noundef signext 17, i16 noundef zeroext 3, i32 noundef 61, i64 noundef %51)
  %52 = load ptr, ptr %3, align 8
  %53 = getelementptr inbounds [1 x %struct.ScanKeyData], ptr %4, i64 0, i64 0
  %54 = call ptr @table_beginscan_catalog(ptr noundef %52, i32 noundef 1, ptr noundef %53)
  store ptr %54, ptr %5, align 8
  br label %55

55:                                               ; preds = %77, %49
  %56 = load ptr, ptr %5, align 8
  %57 = call ptr @heap_getnext(ptr noundef %56, i32 noundef 1)
  store ptr %57, ptr %6, align 8
  %58 = icmp ne ptr %57, null
  br i1 %58, label %59, label %78

59:                                               ; preds = %55
  call void @llvm.lifetime.start.p0(i64 8, ptr %10) #7
  %60 = load ptr, ptr %6, align 8
  %61 = call ptr @GETSTRUCT(ptr noundef %60)
  store ptr %61, ptr %10, align 8
  call void @llvm.lifetime.start.p0(i64 4, ptr %11) #7
  %62 = load ptr, ptr %10, align 8
  %63 = getelementptr inbounds nuw %struct.FormData_pg_class, ptr %62, i32 0, i32 0
  %64 = load i32, ptr %63, align 4
  store i32 %64, ptr %11, align 4
  %65 = load i32, ptr %11, align 4
  %66 = load ptr, ptr %10, align 8
  %67 = call zeroext i1 @is_publishable_class(i32 noundef %65, ptr noundef %66)
  br i1 %67, label %68, label %77

68:                                               ; preds = %59
  %69 = load ptr, ptr %10, align 8
  %70 = getelementptr inbounds nuw %struct.FormData_pg_class, ptr %69, i32 0, i32 26
  %71 = load i8, ptr %70, align 1, !range !4, !noundef !5
  %72 = trunc i8 %71 to i1
  br i1 %72, label %77, label %73

73:                                               ; preds = %68
  %74 = load ptr, ptr %7, align 8
  %75 = load i32, ptr %11, align 4
  %76 = call ptr @lappend_oid(ptr noundef %74, i32 noundef %75)
  store ptr %76, ptr %7, align 8
  br label %77

77:                                               ; preds = %73, %68, %59
  call void @llvm.lifetime.end.p0(i64 4, ptr %11) #7
  call void @llvm.lifetime.end.p0(i64 8, ptr %10) #7
  br label %55, !llvm.loop !20

78:                                               ; preds = %55
  %79 = load ptr, ptr %5, align 8
  call void @table_endscan(ptr noundef %79)
  br label %80

80:                                               ; preds = %78, %45
  %81 = load ptr, ptr %3, align 8
  call void @table_close(ptr noundef %81, i32 noundef 1)
  %82 = load ptr, ptr %7, align 8
  call void @llvm.lifetime.end.p0(i64 8, ptr %7) #7
  call void @llvm.lifetime.end.p0(i64 8, ptr %6) #7
  call void @llvm.lifetime.end.p0(i64 8, ptr %5) #7
  call void @llvm.lifetime.end.p0(i64 72, ptr %4) #7
  call void @llvm.lifetime.end.p0(i64 8, ptr %3) #7
  ret ptr %82
}